target datalayout = "e-m:e-p270:32:32-p271:32:32-p272:64:64-i64:64-i128:128-f80:128-n8:16:32:64-S128"
target triple = "x86_64-pc-linux-gnu"

%"class.absl::log_internal::LogMessage" = type { %"class.absl::base_internal::ErrnoSaver", %"class.std::unique_ptr" }
%"class.absl::base_internal::ErrnoSaver" = type { i32 }
%"class.std::unique_ptr" = type { %"struct.std::__uniq_ptr_data" }
%"struct.std::__uniq_ptr_data" = type { %"class.std::__uniq_ptr_impl" }
%"class.std::__uniq_ptr_impl" = type { %"class.std::tuple" }
%"class.std::tuple" = type { %"struct.std::_Tuple_impl" }
%"struct.std::_Tuple_impl" = type { %"struct.std::_Head_base.1" }
%"struct.std::_Head_base.1" = type { ptr }

; Function Attrs: mustprogress nounwind uwtable
define linkonce_odr dso_local void @_ZN4absl13base_internal10ErrnoSaverD2Ev(ptr noundef nonnull align 4 dereferenceable(4) %0) unnamed_addr #3 comdat align 2 {
  %2 = alloca ptr, align 8
  store ptr %0, ptr %2, align 8, !tbaa !135
  %3 = load ptr, ptr %2, align 8
  %4 = getelementptr inbounds nuw %"class.absl::base_internal::ErrnoSaver", ptr %3, i32 0, i32 0
  %5 = load i32, ptr %4, align 4, !tbaa !137
  %6 = call ptr @__errno_location() #26
  store i32 %5, ptr %6, align 4, !tbaa !36
  ret void
}

; Function Attrs: cold mustprogress nounwind optsize uwtable
define dso_local void @_ZN4absl12log_internal10LogMessageD2Ev(ptr noundef nonnull align 8 dereferenceable(16) %0) unnamed_addr #12 align 2 personality ptr @__gxx_personality_v0 {
  %2 = alloca ptr, align 8
  store ptr %0, ptr %2, align 8, !tbaa !9
  %3 = load ptr, ptr %2, align 8
  invoke void @_ZN4absl12log_internal10LogMessage5FlushEv(ptr noundef nonnull align 8 dereferenceable(16) %3)
          to label %4 unwind label %7

4:                                                ; preds = %1
  %5 = getelementptr inbounds nuw %"class.absl::log_internal::LogMessage", ptr %3, i32 0, i32 1
  call void @_ZNSt10unique_ptrIN4absl12log_internal10LogMessage14LogMessageDataESt14default_deleteIS3_EED2Ev(ptr noundef nonnull align 8 dereferenceable(8) %5) #24
  %6 = getelementptr inbounds nuw %"class.absl::log_internal::LogMessage", ptr %3, i32 0, i32 0
  call void @_ZN4absl13base_internal10ErrnoSaverD2Ev(ptr noundef nonnull align 4 dereferenceable(4) %6) #24
  ret void

7:                                                ; preds = %1
  %8 = landingpad { ptr, i32 }
          catch ptr null
  %9 = extractvalue { ptr, i32 } %8, 0
  call void @__clang_call_terminate(ptr %9) #25
  unreachable
}