; Function Attrs: cold mustprogress nounwind optsize uwtable
define dso_local void @_ZN4absl12log_internal10LogMessageD2Ev(ptr noundef nonnull align 8 dereferenceable(16) %0) unnamed_addr #10 align 2 personality ptr @__gxx_personality_v0 {
  invoke void @_ZN4absl12log_internal10LogMessage5FlushEv(ptr noundef nonnull align 8 dereferenceable(16) %0)
          to label %2 unwind label %6

2:                                                ; preds = %1
  %3 = getelementptr inbounds nuw i8, ptr %0, i64 8
  tail call void @_ZNSt10unique_ptrIN4absl12log_internal10LogMessage14LogMessageDataESt14default_deleteIS3_EED2Ev(ptr noundef nonnull align 8 dereferenceable(8) %3) #28
  %4 = load i32, ptr %0, align 8, !tbaa !104
  %5 = tail call ptr @__errno_location() #30
  store i32 %4, ptr %5, align 4, !tbaa !30
  ret void

6:                                                ; preds = %1
  %7 = landingpad { ptr, i32 }
          catch ptr null
  %8 = extractvalue { ptr, i32 } %7, 0
  tail call void @__clang_call_terminate(ptr %8) #33
  unreachable
}